Certificate:
    Data:
        Version: 3 (0x2)
        Serial Number:
            eb:57:a2:5b:81:b5:22:8c:31:50:a6:a1:09:d2:46:5f
    Signature Algorithm: sha256WithRSAEncryption
        Issuer: CN=generals.space
        Validity
            Not Before: May  1 08:13:49 2020 GMT
            Not After : Apr 16 08:13:49 2023 GMT
        Subject: CN=ss.generals.space
        Subject Public Key Info:
            Public Key Algorithm: rsaEncryption
                Public-Key: (2048 bit)
                Modulus:
                    00:c1:60:6b:a4:8e:79:61:6c:e6:7f:82:56:42:f0:
                    2d:d9:df:bd:e6:61:72:61:6b:a5:ef:b4:3a:c7:f7:
                    a7:89:8c:d3:7f:e2:d1:67:ef:be:14:1b:07:fe:86:
                    9b:31:b6:10:d4:18:29:ce:7a:fb:f1:97:5e:41:03:
                    28:da:41:e8:e5:93:3c:00:8e:04:c9:0c:f0:40:7e:
                    62:dd:8b:f4:d7:f3:4d:7d:70:b6:a6:a7:c9:3b:f9:
                    2a:a6:01:6a:87:51:d6:59:c6:88:24:9d:d3:e7:de:
                    bc:f4:34:d8:66:1c:2d:67:0c:6e:d6:72:1f:11:dd:
                    29:d8:6c:ba:03:af:b8:4e:33:1b:a4:bf:fe:71:06:
                    5b:12:04:85:57:cc:c9:9e:21:fc:ab:99:3a:94:6c:
                    08:d8:23:0f:ef:d3:ea:e6:c9:74:96:16:66:b5:21:
                    f7:ea:b2:ba:f9:99:49:ec:67:6b:1b:a6:ea:e3:48:
                    d7:d5:98:3e:85:b6:79:7e:f8:c7:1b:d2:d4:40:a7:
                    ca:fd:d1:22:4b:af:8c:92:0e:e6:ba:25:04:b1:95:
                    49:37:33:67:99:1d:57:a9:5b:67:75:69:1f:97:44:
                    d9:b3:41:8f:b3:ee:f4:aa:9a:57:fd:28:23:43:16:
                    45:28:2e:85:a4:80:b9:29:fa:fb:33:db:21:45:dd:
                    e4:9f
                Exponent: 65537 (0x10001)
        X509v3 extensions:
            X509v3 Basic Constraints: 
                CA:FALSE
            X509v3 Subject Key Identifier: 
                47:0A:48:D7:D3:91:9C:C3:2B:47:9A:AF:CA:CB:38:E5:F4:89:C7:73
            X509v3 Authority Key Identifier: 
                keyid:CC:95:CB:D2:09:8E:08:4C:57:5E:19:B0:85:CF:19:C8:5E:CE:03:4A
                DirName:/CN=generals.space
                serial:DC:9F:B1:8E:9C:3A:D5:84

            X509v3 Extended Key Usage: 
                TLS Web Server Authentication
            X509v3 Key Usage: 
                Digital Signature, Key Encipherment
            X509v3 Subject Alternative Name: 
                DNS:ss.generals.space
    Signature Algorithm: sha256WithRSAEncryption
         9d:67:30:9e:0f:6b:6d:0d:8d:31:81:a0:83:b1:95:2b:7b:44:
         7e:e6:29:19:31:c0:f8:1b:0a:ff:44:73:33:c9:fc:ac:15:9d:
         25:02:97:b5:23:21:68:8b:21:d4:91:f3:bb:50:84:cc:fc:75:
         6b:f6:5d:83:4d:0b:17:a8:e4:2e:ad:70:b2:cd:18:c7:3a:bf:
         cd:fb:b8:35:9f:be:55:e8:f3:01:b1:f4:dc:39:06:88:13:81:
         9d:cf:e2:85:ec:5f:ce:8c:2f:51:19:bc:b0:66:fa:94:65:f6:
         80:02:20:b0:4e:39:0a:c4:26:8b:fe:ff:5a:ca:12:80:21:da:
         c7:04:fc:c0:80:32:7b:6b:42:66:06:2c:31:6f:b5:d5:67:8e:
         fa:e1:c5:c4:34:98:c5:38:3d:17:1e:2c:4d:c3:b1:3e:7e:a9:
         63:ff:49:b3:ca:d3:c2:6c:3f:ff:ce:47:85:c2:08:57:bc:5e:
         08:0b:03:33:5b:43:a8:cf:ce:f3:d4:0e:1c:23:66:28:ce:72:
         21:25:ad:32:96:9a:c2:cd:da:67:51:e2:03:ae:1d:57:6a:b0:
         67:6a:28:7f:34:ae:8a:68:38:00:85:3d:a3:80:56:db:c8:16:
         b7:77:5c:8a:d5:1e:5b:5e:0e:58:d1:b9:d6:1d:76:79:03:e2:
         a8:35:6a:25
-----BEGIN CERTIFICATE-----
MIIDeTCCAmGgAwIBAgIRAOtXoluBtSKMMVCmoQnSRl8wDQYJKoZIhvcNAQELBQAw
GTEXMBUGA1UEAwwOZ2VuZXJhbHMuc3BhY2UwHhcNMjAwNTAxMDgxMzQ5WhcNMjMw
NDE2MDgxMzQ5WjAcMRowGAYDVQQDDBFzcy5nZW5lcmFscy5zcGFjZTCCASIwDQYJ
KoZIhvcNAQEBBQADggEPADCCAQoCggEBAMFga6SOeWFs5n+CVkLwLdnfveZhcmFr
pe+0Osf3p4mM03/i0WfvvhQbB/6GmzG2ENQYKc56+/GXXkEDKNpB6OWTPACOBMkM
8EB+Yt2L9NfzTX1wtqanyTv5KqYBaodR1lnGiCSd0+fevPQ02GYcLWcMbtZyHxHd
KdhsugOvuE4zG6S//nEGWxIEhVfMyZ4h/KuZOpRsCNgjD+/T6ubJdJYWZrUh9+qy
uvmZSexnaxum6uNI19WYPoW2eX74xxvS1ECnyv3RIkuvjJIO5rolBLGVSTczZ5kd
V6lbZ3VpH5dE2bNBj7Pu9KqaV/0oI0MWRSguhaSAuSn6+zPbIUXd5J8CAwEAAaOB
uDCBtTAJBgNVHRMEAjAAMB0GA1UdDgQWBBRHCkjX05GcwytHmq/Kyzjl9InHczBJ
BgNVHSMEQjBAgBTMlcvSCY4ITFdeGbCFzxnIXs4DSqEdpBswGTEXMBUGA1UEAwwO
Z2VuZXJhbHMuc3BhY2WCCQDcn7GOnDrVhDATBgNVHSUEDDAKBggrBgEFBQcDATAL
BgNVHQ8EBAMCBaAwHAYDVR0RBBUwE4IRc3MuZ2VuZXJhbHMuc3BhY2UwDQYJKoZI
hvcNAQELBQADggEBAJ1nMJ4Pa20NjTGBoIOxlSt7RH7mKRkxwPgbCv9EczPJ/KwV
nSUCl7UjIWiLIdSR87tQhMz8dWv2XYNNCxeo5C6tcLLNGMc6v837uDWfvlXo8wGx
9Nw5BogTgZ3P4oXsX86ML1EZvLBm+pRl9oACILBOOQrEJov+/1rKEoAh2scE/MCA
MntrQmYGLDFvtdVnjvrhxcQ0mMU4PRceLE3DsT5+qWP/SbPK08JsP//OR4XCCFe8
XggLAzNbQ6jPzvPUDhwjZijOciElrTKWmsLN2mdR4gOuHVdqsGdqKH80ropoOACF
PaOAVtvIFrd3XIrVHlteDljRudYddnkD4qg1aiU=
-----END CERTIFICATE-----
